target datalayout = "e-m:e-p270:32:32-p271:32:32-p272:64:64-i64:64-i128:128-f80:128-n8:16:32:64-S128"
target triple = "x86_64-pc-linux-gnu"

%struct.H5S_hyper_dim_t = type { i64, i64, i64, i64 }
%struct.H5S_hyper_span_t = type { i64, i64, ptr, ptr }
%struct.H5S_sel_iter_t = type { ptr, i32, [32 x i64], [32 x i64], i64, i64, i32, %union.anon.2 }
%union.anon.2 = type { %struct.H5S_hyper_iter_t }
%struct.H5S_hyper_iter_t = type { [32 x i64], [32 x i64], i32, i8, [32 x %struct.H5S_hyper_dim_t], [32 x i64], [32 x i64], [32 x i8], [32 x i64], ptr, [32 x ptr] }

@H5S_init_g = external global i8, align 1
@H5_libterm_g = external global i8, align 1

; Function Attrs: nounwind willreturn memory(read) uwtable
define internal i32 @H5S__hyper_iter_has_next_block(ptr noundef %0) #6 {
  %2 = alloca i32, align 4
  %3 = alloca ptr, align 8
  %4 = alloca i32, align 4
  %5 = alloca i32, align 4
  %6 = alloca ptr, align 8
  %7 = alloca ptr, align 8
  %8 = alloca i32, align 4
  store ptr %0, ptr %3, align 8, !tbaa !129
  call void @llvm.lifetime.start.p0(i64 4, ptr %4) #7
  call void @llvm.lifetime.start.p0(i64 4, ptr %5) #7
  store i32 0, ptr %5, align 4, !tbaa !10
  %9 = load i8, ptr @H5S_init_g, align 1, !tbaa !8, !range !12, !noundef !13
  %10 = trunc i8 %9 to i1
  br i1 %10, label %15, label %11

11:                                               ; preds = %1
  %12 = load i8, ptr @H5_libterm_g, align 1, !tbaa !8, !range !12, !noundef !13
  %13 = trunc i8 %12 to i1
  %14 = xor i1 %13, true
  br label %15

15:                                               ; preds = %11, %1
  %16 = phi i1 [ true, %1 ], [ %14, %11 ]
  %17 = xor i1 %16, true
  %18 = xor i1 %17, true
  %19 = zext i1 %18 to i32
  %20 = sext i32 %19 to i64
  %21 = call i64 @llvm.expect.i64(i64 %20, i64 1)
  %22 = icmp ne i64 %21, 0
  br i1 %22, label %23, label %122

23:                                               ; preds = %15
  %24 = load ptr, ptr %3, align 8, !tbaa !129
  %25 = getelementptr inbounds nuw %struct.H5S_sel_iter_t, ptr %24, i32 0, i32 7
  %26 = getelementptr inbounds nuw %struct.H5S_hyper_iter_t, ptr %25, i32 0, i32 3
  %27 = load i8, ptr %26, align 4, !tbaa !14, !range !12, !noundef !13
  %28 = trunc i8 %27 to i1
  br i1 %28, label %29, label %93

29:                                               ; preds = %23
  call void @llvm.lifetime.start.p0(i64 8, ptr %6) #7
  call void @llvm.lifetime.start.p0(i64 8, ptr %7) #7
  %30 = load ptr, ptr %3, align 8, !tbaa !129
  %31 = getelementptr inbounds nuw %struct.H5S_sel_iter_t, ptr %30, i32 0, i32 7
  %32 = getelementptr inbounds nuw %struct.H5S_hyper_iter_t, ptr %31, i32 0, i32 4
  %33 = getelementptr inbounds [32 x %struct.H5S_hyper_dim_t], ptr %32, i64 0, i64 0
  store ptr %33, ptr %6, align 8, !tbaa !41
  %34 = load ptr, ptr %3, align 8, !tbaa !129
  %35 = getelementptr inbounds nuw %struct.H5S_sel_iter_t, ptr %34, i32 0, i32 7
  %36 = getelementptr inbounds nuw %struct.H5S_hyper_iter_t, ptr %35, i32 0, i32 0
  %37 = getelementptr inbounds [32 x i64], ptr %36, i64 0, i64 0
  store ptr %37, ptr %7, align 8, !tbaa !33
  store i32 0, ptr %4, align 4, !tbaa !10
  br label %38

38:                                               ; preds = %86, %29
  %39 = load i32, ptr %4, align 4, !tbaa !10
  %40 = load ptr, ptr %3, align 8, !tbaa !129
  %41 = getelementptr inbounds nuw %struct.H5S_sel_iter_t, ptr %40, i32 0, i32 1
  %42 = load i32, ptr %41, align 8, !tbaa !131
  %43 = icmp ult i32 %39, %42
  br i1 %43, label %44, label %89

44:                                               ; preds = %38
  %45 = load ptr, ptr %6, align 8, !tbaa !41
  %46 = load i32, ptr %4, align 4, !tbaa !10
  %47 = zext i32 %46 to i64
  %48 = getelementptr inbounds nuw %struct.H5S_hyper_dim_t, ptr %45, i64 %47
  %49 = getelementptr inbounds nuw %struct.H5S_hyper_dim_t, ptr %48, i32 0, i32 2
  %50 = load i64, ptr %49, align 8, !tbaa !49
  %51 = icmp eq i64 %50, 1
  br i1 %51, label %52, label %53

52:                                               ; preds = %44
  br label %86

53:                                               ; preds = %44
  %54 = load ptr, ptr %7, align 8, !tbaa !33
  %55 = load i32, ptr %4, align 4, !tbaa !10
  %56 = zext i32 %55 to i64
  %57 = getelementptr inbounds nuw i64, ptr %54, i64 %56
  %58 = load i64, ptr %57, align 8, !tbaa !15
  %59 = load ptr, ptr %6, align 8, !tbaa !41
  %60 = load i32, ptr %4, align 4, !tbaa !10
  %61 = zext i32 %60 to i64
  %62 = getelementptr inbounds nuw %struct.H5S_hyper_dim_t, ptr %59, i64 %61
  %63 = getelementptr inbounds nuw %struct.H5S_hyper_dim_t, ptr %62, i32 0, i32 0
  %64 = load i64, ptr %63, align 8, !tbaa !46
  %65 = load ptr, ptr %6, align 8, !tbaa !41
  %66 = load i32, ptr %4, align 4, !tbaa !10
  %67 = zext i32 %66 to i64
  %68 = getelementptr inbounds nuw %struct.H5S_hyper_dim_t, ptr %65, i64 %67
  %69 = getelementptr inbounds nuw %struct.H5S_hyper_dim_t, ptr %68, i32 0, i32 2
  %70 = load i64, ptr %69, align 8, !tbaa !49
  %71 = sub i64 %70, 1
  %72 = load ptr, ptr %6, align 8, !tbaa !41
  %73 = load i32, ptr %4, align 4, !tbaa !10
  %74 = zext i32 %73 to i64
  %75 = getelementptr inbounds nuw %struct.H5S_hyper_dim_t, ptr %72, i64 %74
  %76 = getelementptr inbounds nuw %struct.H5S_hyper_dim_t, ptr %75, i32 0, i32 1
  %77 = load i64, ptr %76, align 8, !tbaa !48
  %78 = mul i64 %71, %77
  %79 = add i64 %64, %78
  %80 = icmp ne i64 %58, %79
  br i1 %80, label %81, label %85

81:                                               ; preds = %53
  br label %82

82:                                               ; preds = %81
  store i32 1, ptr %5, align 4, !tbaa !10
  store i32 7, ptr %8, align 4
  br label %90

83:                                               ; No predecessors!
  br label %84

84:                                               ; preds = %83
  br label %85

85:                                               ; preds = %84, %53
  br label %86

86:                                               ; preds = %85, %52
  %87 = load i32, ptr %4, align 4, !tbaa !10
  %88 = add i32 %87, 1
  store i32 %88, ptr %4, align 4, !tbaa !10
  br label %38, !llvm.loop !213

89:                                               ; preds = %38
  store i32 0, ptr %8, align 4
  br label %90

90:                                               ; preds = %82, %89
  call void @llvm.lifetime.end.p0(i64 8, ptr %7) #7
  call void @llvm.lifetime.end.p0(i64 8, ptr %6) #7
  %91 = load i32, ptr %8, align 4
  switch i32 %91, label %124 [
    i32 0, label %92
    i32 7, label %121
  ]

92:                                               ; preds = %90
  br label %120

93:                                               ; preds = %23
  store i32 0, ptr %4, align 4, !tbaa !10
  br label %94

94:                                               ; preds = %116, %93
  %95 = load i32, ptr %4, align 4, !tbaa !10
  %96 = load ptr, ptr %3, align 8, !tbaa !129
  %97 = getelementptr inbounds nuw %struct.H5S_sel_iter_t, ptr %96, i32 0, i32 1
  %98 = load i32, ptr %97, align 8, !tbaa !131
  %99 = icmp ult i32 %95, %98
  br i1 %99, label %100, label %119

100:                                              ; preds = %94
  %101 = load ptr, ptr %3, align 8, !tbaa !129
  %102 = getelementptr inbounds nuw %struct.H5S_sel_iter_t, ptr %101, i32 0, i32 7
  %103 = getelementptr inbounds nuw %struct.H5S_hyper_iter_t, ptr %102, i32 0, i32 10
  %104 = load i32, ptr %4, align 4, !tbaa !10
  %105 = zext i32 %104 to i64
  %106 = getelementptr inbounds nuw [32 x ptr], ptr %103, i64 0, i64 %105
  %107 = load ptr, ptr %106, align 8, !tbaa !14
  %108 = getelementptr inbounds nuw %struct.H5S_hyper_span_t, ptr %107, i32 0, i32 3
  %109 = load ptr, ptr %108, align 8, !tbaa !108
  %110 = icmp ne ptr %109, null
  br i1 %110, label %111, label %115

111:                                              ; preds = %100
  br label %112

112:                                              ; preds = %111
  store i32 1, ptr %5, align 4, !tbaa !10
  br label %121

113:                                              ; No predecessors!
  br label %114

114:                                              ; preds = %113
  br label %115

115:                                              ; preds = %114, %100
  br label %116

116:                                              ; preds = %115
  %117 = load i32, ptr %4, align 4, !tbaa !10
  %118 = add i32 %117, 1
  store i32 %118, ptr %4, align 4, !tbaa !10
  br label %94, !llvm.loop !214

119:                                              ; preds = %94
  br label %120

120:                                              ; preds = %119, %92
  br label %121

121:                                              ; preds = %120, %90, %112
  br label %122

122:                                              ; preds = %121, %15
  %123 = load i32, ptr %5, align 4, !tbaa !10
  store i32 %123, ptr %2, align 4
  store i32 1, ptr %8, align 4
  br label %124

124:                                              ; preds = %122, %90
  call void @llvm.lifetime.end.p0(i64 4, ptr %5) #7
  call void @llvm.lifetime.end.p0(i64 4, ptr %4) #7
  %125 = load i32, ptr %2, align 4
  ret i32 %125
}