; Function Attrs: mustprogress nofree norecurse nosync nounwind willreturn memory(read, inaccessiblemem: none) uwtable
define internal range(i32 0, 2) i32 @H5S__hyper_iter_has_next_block(ptr noundef readonly captures(none) %0) #2 {
  %2 = load i8, ptr @H5S_init_g, align 1, !tbaa !3, !range !7, !noundef !8
  %3 = trunc nuw i8 %2 to i1
  %4 = load i8, ptr @H5_libterm_g, align 1, !range !7
  %5 = trunc nuw i8 %4 to i1
  %6 = xor i1 %5, true
  %7 = select i1 %3, i1 true, i1 %6
  br i1 %7, label %8, label %.loopexit, !prof !9

8:                                                ; preds = %1
  %9 = getelementptr inbounds nuw i8, ptr %0, i64 552
  %10 = getelementptr inbounds nuw i8, ptr %0, i64 1068
  %11 = load i8, ptr %10, align 4, !tbaa !10, !range !7, !noundef !8
  %12 = trunc nuw i8 %11 to i1
  %13 = getelementptr inbounds nuw i8, ptr %0, i64 8
  %14 = load i32, ptr %13, align 8, !tbaa !123
  %.not40 = icmp eq i32 %14, 0
  br i1 %12, label %16, label %.preheader

.preheader:                                       ; preds = %8
  %15 = getelementptr inbounds nuw i8, ptr %0, i64 2904
  br i1 %.not40, label %.loopexit, label %.lr.ph.preheader

.lr.ph.preheader:                                 ; preds = %.preheader
  %wide.trip.count = zext i32 %14 to i64
  br label %.lr.ph

16:                                               ; preds = %8
  %17 = getelementptr inbounds nuw i8, ptr %0, i64 1072
  br i1 %.not40, label %.loopexit, label %.lr.ph35.preheader

.lr.ph35.preheader:                               ; preds = %16
  %wide.trip.count47 = zext i32 %14 to i64
  br label %.lr.ph35

.lr.ph35:                                         ; preds = %.lr.ph35.preheader, %31
  %indvars.iv44 = phi i64 [ 0, %.lr.ph35.preheader ], [ %indvars.iv.next45, %31 ]
  %18 = getelementptr inbounds nuw %struct.H5S_hyper_dim_t, ptr %17, i64 %indvars.iv44
  %19 = getelementptr inbounds nuw i8, ptr %18, i64 16
  %20 = load i64, ptr %19, align 8, !tbaa !35
  %21 = icmp eq i64 %20, 1
  br i1 %21, label %31, label %22

22:                                               ; preds = %.lr.ph35
  %23 = getelementptr inbounds nuw i64, ptr %9, i64 %indvars.iv44
  %24 = load i64, ptr %23, align 8, !tbaa !11
  %25 = load i64, ptr %18, align 8, !tbaa !44
  %26 = add i64 %20, -1
  %27 = getelementptr inbounds nuw i8, ptr %18, i64 8
  %28 = load i64, ptr %27, align 8, !tbaa !45
  %29 = mul i64 %28, %26
  %30 = add i64 %29, %25
  %.not28 = icmp eq i64 %24, %30
  br i1 %.not28, label %31, label %.loopexit

31:                                               ; preds = %22, %.lr.ph35
  %indvars.iv.next45 = add nuw nsw i64 %indvars.iv44, 1
  %exitcond48.not = icmp eq i64 %indvars.iv.next45, %wide.trip.count47
  br i1 %exitcond48.not, label %.loopexit, label %.lr.ph35, !llvm.loop !207

32:                                               ; preds = %.lr.ph
  %indvars.iv.next = add nuw nsw i64 %indvars.iv, 1
  %exitcond.not = icmp eq i64 %indvars.iv.next, %wide.trip.count
  br i1 %exitcond.not, label %.loopexit, label %.lr.ph, !llvm.loop !208

.lr.ph:                                           ; preds = %.lr.ph.preheader, %32
  %indvars.iv = phi i64 [ 0, %.lr.ph.preheader ], [ %indvars.iv.next, %32 ]
  %33 = getelementptr inbounds nuw [32 x ptr], ptr %15, i64 0, i64 %indvars.iv
  %34 = load ptr, ptr %33, align 8, !tbaa !10
  %35 = getelementptr inbounds nuw i8, ptr %34, i64 24
  %36 = load ptr, ptr %35, align 8, !tbaa !96
  %.not = icmp eq ptr %36, null
  br i1 %.not, label %32, label %.loopexit

.loopexit:                                        ; preds = %.lr.ph, %32, %31, %22, %.preheader, %16, %1
  %.023 = phi i32 [ 0, %1 ], [ 0, %16 ], [ 0, %.preheader ], [ 0, %31 ], [ 1, %22 ], [ 1, %.lr.ph ], [ 0, %32 ]
  ret i32 %.023
}